ccopy_reg
_reconstructor
p0
(cpandas.core.frame
DataFrame
p1
c__builtin__
object
p2
Ntp3
Rp4
(dp5
S'_metadata'
p6
(lp7
sS'_typ'
p8
S'dataframe'
p9
sS'_data'
p10
g0
(cpandas.core.internals.managers
BlockManager
p11
g2
Ntp12
Rp13
((lp14
cpandas.core.indexes.base
_new_Index
p15
(cpandas.core.indexes.base
Index
p16
(dp17
S'data'
p18
cnumpy.core.multiarray
_reconstruct
p19
(cnumpy
ndarray
p20
(I0
tp21
S'b'
p22
tp23
Rp24
(I1
(I3
tp25
cnumpy
dtype
p26
(S'O8'
p27
I0
I1
tp28
Rp29
(I3
S'|'
p30
NNNI-1
I-1
I63
tp31
bI00
(lp32
S'Model'
p33
aS'Test Set Accuracy'
p34
aS'Training Set Accuracy'
p35
atp36
bsS'name'
p37
Nstp38
Rp39
ag15
(cpandas.core.indexes.numeric
Int64Index
p40
(dp41
g18
g19
(g20
(I0
tp42
g22
tp43
Rp44
(I1
(I1
tp45
g26
(S'i8'
p46
I0
I1
tp47
Rp48
(I3
S'<'
p49
NNNI-1
I-1
I0
tp50
bI00
S'\x00\x00\x00\x00\x00\x00\x00\x00'
p51
tp52
bsg37
Nstp53
Rp54
a(lp55
g19
(g20
(I0
tp56
g22
tp57
Rp58
(I1
(I2
I1
tp59
g26
(S'f8'
p60
I0
I1
tp61
Rp62
(I3
S'<'
p63
NNNI-1
I-1
I0
tp64
bI00
S'\xa7\x04\x94\x81d\x87\xed?\xd5\xfcs\xa2RY\xed?'
p65
tp66
bag19
(g20
(I0
tp67
g22
tp68
Rp69
(I1
(I1
I1
tp70
g29
I00
(lp71
S'SVM'
p72
atp73
ba(lp74
g15
(g16
(dp75
g18
g19
(g20
(I0
tp76
g22
tp77
Rp78
(I1
(I2
tp79
g29
I00
(lp80
g34
ag35
atp81
bsg37
Nstp82
Rp83
ag15
(g16
(dp84
g18
g19
(g20
(I0
tp85
g22
tp86
Rp87
(I1
(I1
tp88
g29
I00
(lp89
g33
atp90
bsg37
Nstp91
Rp92
a(dp93
S'0.14.1'
p94
(dp95
S'axes'
p96
g14
sS'blocks'
p97
(lp98
(dp99
S'mgr_locs'
p100
c__builtin__
slice
p101
(I1
I3
I1
tp102
Rp103
sS'values'
p104
g58
sa(dp105
g100
g101
(I0
I1
I1
tp106
Rp107
sg104
g69
sasstp108
bsb.